target datalayout = "e-m:e-p270:32:32-p271:32:32-p272:64:64-i64:64-i128:128-f80:128-n8:16:32:64-S128"
target triple = "x86_64-pc-linux-gnu"

%"class.clang::TemplateArgument" = type { %union.anon.424 }
%union.anon.424 = type { %"struct.clang::TemplateArgument::DA" }
%"struct.clang::TemplateArgument::DA" = type { i32, ptr, ptr }
%"struct.llvm::detail::PunnedPointer.5" = type { [8 x i8] }
%"class.clang::SourceLocation" = type { i32 }
%"class.clang::Decl.base" = type <{ ptr, %"class.llvm::PointerIntPair", %"class.llvm::PointerUnion", %"class.clang::SourceLocation", i32, i8 }>
%"class.llvm::PointerIntPair" = type { %"struct.llvm::detail::PunnedPointer" }
%"struct.llvm::detail::PunnedPointer" = type { [8 x i8] }
%"class.llvm::PointerUnion" = type { %"class.llvm::pointer_union_detail::PointerUnionMembers" }
%"class.llvm::pointer_union_detail::PointerUnionMembers" = type { %"class.llvm::pointer_union_detail::PointerUnionMembers.2" }
%"class.llvm::pointer_union_detail::PointerUnionMembers.2" = type { %"class.llvm::pointer_union_detail::PointerUnionMembers.3" }
%"class.llvm::pointer_union_detail::PointerUnionMembers.3" = type { %"class.llvm::PointerIntPair.4" }
%"class.llvm::PointerIntPair.4" = type { %"struct.llvm::detail::PunnedPointer.5" }
%"class.llvm::ArrayRef.418" = type { ptr, i64 }
%"class.clang::ImplicitConceptSpecializationDecl" = type { %"class.clang::Decl.base", i32 }

; Function Attrs: mustprogress nounwind uwtable
define linkonce_odr void @_ZSt10_ConstructIN5clang16TemplateArgumentEJRKS1_EEvPT_DpOT0_(ptr noundef %0, ptr noundef nonnull align 8 dereferenceable(24) %1) #0 comdat {
  %3 = alloca ptr, align 8
  %4 = alloca ptr, align 8
  store ptr %0, ptr %3, align 8
  store ptr %1, ptr %4, align 8
  %5 = load ptr, ptr %3, align 8
  %6 = load ptr, ptr %4, align 8
  call void @llvm.memcpy.p0.p0.i64(ptr align 8 %5, ptr align 8 %6, i64 24, i1 false)
  ret void
}

; Function Attrs: mustprogress nounwind uwtable
define linkonce_odr noundef ptr @_ZSt16__do_uninit_copyIPKN5clang16TemplateArgumentEPS1_ET0_T_S6_S5_(ptr noundef %0, ptr noundef %1, ptr noundef %2) #0 comdat {
  %4 = alloca ptr, align 8
  %5 = alloca ptr, align 8
  %6 = alloca ptr, align 8
  %7 = alloca ptr, align 8
  store ptr %0, ptr %4, align 8
  store ptr %1, ptr %5, align 8
  store ptr %2, ptr %6, align 8
  %8 = load ptr, ptr %6, align 8
  store ptr %8, ptr %7, align 8
  br label %9

9:                                                ; preds = %16, %3
  %10 = load ptr, ptr %4, align 8
  %11 = load ptr, ptr %5, align 8
  %12 = icmp ne ptr %10, %11
  br i1 %12, label %13, label %21

13:                                               ; preds = %9
  %14 = load ptr, ptr %7, align 8
  %15 = load ptr, ptr %4, align 8
  call void @_ZSt10_ConstructIN5clang16TemplateArgumentEJRKS1_EEvPT_DpOT0_(ptr noundef %14, ptr noundef nonnull align 8 dereferenceable(24) %15)
  br label %16

16:                                               ; preds = %13
  %17 = load ptr, ptr %4, align 8
  %18 = getelementptr inbounds %"class.clang::TemplateArgument", ptr %17, i32 1
  store ptr %18, ptr %4, align 8
  %19 = load ptr, ptr %7, align 8
  %20 = getelementptr inbounds %"class.clang::TemplateArgument", ptr %19, i32 1
  store ptr %20, ptr %7, align 8
  br label %9, !llvm.loop !15

21:                                               ; preds = %9
  %22 = load ptr, ptr %7, align 8
  ret ptr %22
}

; Function Attrs: mustprogress nounwind uwtable
define linkonce_odr hidden noundef i64 @_ZN4llvm15TrailingObjectsIN5clang33ImplicitConceptSpecializationDeclEJNS1_16TemplateArgumentEEE22callNumTrailingObjectsEPKS2_NS_25trailing_objects_internal19TrailingObjectsBase13OverloadTokenIS2_EE(ptr noundef %0) #0 comdat align 2 {
  %2 = alloca ptr, align 8
  store ptr %0, ptr %2, align 8
  ret i64 1
}

; Function Attrs: mustprogress nounwind uwtable
define linkonce_odr hidden noundef ptr @_ZN4llvm15TrailingObjectsIN5clang33ImplicitConceptSpecializationDeclEJNS1_16TemplateArgumentEEE22getTrailingObjectsImplEPS2_NS_25trailing_objects_internal19TrailingObjectsBase13OverloadTokenIS2_EE(ptr noundef %0) #0 comdat align 2 {
  %2 = alloca ptr, align 8
  store ptr %0, ptr %2, align 8
  %3 = load ptr, ptr %2, align 8
  ret ptr %3
}

; Function Attrs: mustprogress nounwind uwtable
define linkonce_odr hidden noundef ptr @_ZNSt20__uninitialized_copyILb0EE13__uninit_copyIPKN5clang16TemplateArgumentEPS3_EET0_T_S8_S7_(ptr noundef %0, ptr noundef %1, ptr noundef %2) #0 comdat align 2 {
  %4 = alloca ptr, align 8
  %5 = alloca ptr, align 8
  %6 = alloca ptr, align 8
  store ptr %0, ptr %4, align 8
  store ptr %1, ptr %5, align 8
  store ptr %2, ptr %6, align 8
  %7 = load ptr, ptr %4, align 8
  %8 = load ptr, ptr %5, align 8
  %9 = load ptr, ptr %6, align 8
  %10 = call noundef ptr @_ZSt16__do_uninit_copyIPKN5clang16TemplateArgumentEPS1_ET0_T_S6_S5_(ptr noundef %7, ptr noundef %8, ptr noundef %9)
  ret ptr %10
}

; Function Attrs: mustprogress nounwind uwtable
define linkonce_odr hidden noundef ptr @_ZN4llvm25trailing_objects_internal19TrailingObjectsImplILi8EN5clang33ImplicitConceptSpecializationDeclENS_15TrailingObjectsIS3_JNS2_16TemplateArgumentEEEES3_JS5_EE22getTrailingObjectsImplEPS3_NS0_19TrailingObjectsBase13OverloadTokenIS5_EE(ptr noundef %0) #0 comdat align 2 {
  %2 = alloca ptr, align 8
  %3 = alloca ptr, align 8
  store ptr %0, ptr %2, align 8
  %4 = load ptr, ptr %2, align 8
  %5 = call noundef ptr @_ZN4llvm15TrailingObjectsIN5clang33ImplicitConceptSpecializationDeclEJNS1_16TemplateArgumentEEE22getTrailingObjectsImplEPS2_NS_25trailing_objects_internal19TrailingObjectsBase13OverloadTokenIS2_EE(ptr noundef %4)
  %6 = load ptr, ptr %2, align 8
  %7 = call noundef i64 @_ZN4llvm15TrailingObjectsIN5clang33ImplicitConceptSpecializationDeclEJNS1_16TemplateArgumentEEE22callNumTrailingObjectsEPKS2_NS_25trailing_objects_internal19TrailingObjectsBase13OverloadTokenIS2_EE(ptr noundef %6)
  %8 = getelementptr inbounds %"class.clang::ImplicitConceptSpecializationDecl", ptr %5, i64 %7
  store ptr %8, ptr %3, align 8
  %9 = load ptr, ptr %3, align 8
  ret ptr %9
}

; Function Attrs: mustprogress nounwind uwtable
define linkonce_odr hidden void @_ZN4llvm15TrailingObjectsIN5clang33ImplicitConceptSpecializationDeclEJNS1_16TemplateArgumentEEE31verifyTrailingObjectsAssertionsEv() #0 comdat align 2 {
  ret void
}

; Function Attrs: mustprogress nounwind uwtable
define linkonce_odr noundef ptr @_ZSt18uninitialized_copyIPKN5clang16TemplateArgumentEPS1_ET0_T_S6_S5_(ptr noundef %0, ptr noundef %1, ptr noundef %2) #0 comdat {
  %4 = alloca ptr, align 8
  %5 = alloca ptr, align 8
  %6 = alloca ptr, align 8
  %7 = alloca i8, align 1
  %8 = alloca i8, align 1
  store ptr %0, ptr %4, align 8
  store ptr %1, ptr %5, align 8
  store ptr %2, ptr %6, align 8
  store i8 0, ptr %7, align 1
  store i8 0, ptr %8, align 1
  %9 = load ptr, ptr %4, align 8
  %10 = load ptr, ptr %5, align 8
  %11 = load ptr, ptr %6, align 8
  %12 = call noundef ptr @_ZNSt20__uninitialized_copyILb0EE13__uninit_copyIPKN5clang16TemplateArgumentEPS3_EET0_T_S8_S7_(ptr noundef %9, ptr noundef %10, ptr noundef %11)
  ret ptr %12
}

; Function Attrs: mustprogress nounwind uwtable
define linkonce_odr hidden noundef ptr @_ZN4llvm15TrailingObjectsIN5clang33ImplicitConceptSpecializationDeclEJNS1_16TemplateArgumentEEE18getTrailingObjectsIS3_EEPT_v(ptr noundef nonnull align 8 dereferenceable(8) %0) #0 comdat align 2 {
  %2 = alloca ptr, align 8
  store ptr %0, ptr %2, align 8
  %3 = load ptr, ptr %2, align 8
  call void @_ZN4llvm15TrailingObjectsIN5clang33ImplicitConceptSpecializationDeclEJNS1_16TemplateArgumentEEE31verifyTrailingObjectsAssertionsEv()
  %4 = call noundef ptr @_ZN4llvm25trailing_objects_internal19TrailingObjectsImplILi8EN5clang33ImplicitConceptSpecializationDeclENS_15TrailingObjectsIS3_JNS2_16TemplateArgumentEEEES3_JS5_EE22getTrailingObjectsImplEPS3_NS0_19TrailingObjectsBase13OverloadTokenIS5_EE(ptr noundef %3)
  ret ptr %4
}

; Function Attrs: mustprogress nounwind uwtable
define linkonce_odr hidden noundef ptr @_ZNK4llvm8ArrayRefIN5clang16TemplateArgumentEE3endEv(ptr noundef nonnull align 8 dereferenceable(16) %0) #0 comdat align 2 {
  %2 = alloca ptr, align 8
  store ptr %0, ptr %2, align 8
  %3 = load ptr, ptr %2, align 8
  %4 = getelementptr inbounds nuw %"class.llvm::ArrayRef.418", ptr %3, i32 0, i32 0
  %5 = load ptr, ptr %4, align 8
  %6 = getelementptr inbounds nuw %"class.llvm::ArrayRef.418", ptr %3, i32 0, i32 1
  %7 = load i64, ptr %6, align 8
  %8 = getelementptr inbounds %"class.clang::TemplateArgument", ptr %5, i64 %7
  ret ptr %8
}

; Function Attrs: mustprogress nounwind uwtable
define linkonce_odr hidden noundef ptr @_ZNK4llvm8ArrayRefIN5clang16TemplateArgumentEE5beginEv(ptr noundef nonnull align 8 dereferenceable(16) %0) #0 comdat align 2 {
  %2 = alloca ptr, align 8
  store ptr %0, ptr %2, align 8
  %3 = load ptr, ptr %2, align 8
  %4 = getelementptr inbounds nuw %"class.llvm::ArrayRef.418", ptr %3, i32 0, i32 0
  %5 = load ptr, ptr %4, align 8
  ret ptr %5
}

; Function Attrs: mustprogress nounwind uwtable
define dso_local void @_ZN5clang33ImplicitConceptSpecializationDecl20setTemplateArgumentsEN4llvm8ArrayRefINS_16TemplateArgumentEEE(ptr noundef nonnull align 8 dereferenceable(40) %0, ptr %1, i64 %2) #0 align 2 {
  %4 = alloca %"class.llvm::ArrayRef.418", align 8
  %5 = alloca ptr, align 8
  %6 = getelementptr inbounds nuw { ptr, i64 }, ptr %4, i32 0, i32 0
  store ptr %1, ptr %6, align 8
  %7 = getelementptr inbounds nuw { ptr, i64 }, ptr %4, i32 0, i32 1
  store i64 %2, ptr %7, align 8
  store ptr %0, ptr %5, align 8
  %8 = load ptr, ptr %5, align 8
  %9 = call noundef ptr @_ZNK4llvm8ArrayRefIN5clang16TemplateArgumentEE5beginEv(ptr noundef nonnull align 8 dereferenceable(16) %4)
  %10 = call noundef ptr @_ZNK4llvm8ArrayRefIN5clang16TemplateArgumentEE3endEv(ptr noundef nonnull align 8 dereferenceable(16) %4)
  %11 = call noundef ptr @_ZN4llvm15TrailingObjectsIN5clang33ImplicitConceptSpecializationDeclEJNS1_16TemplateArgumentEEE18getTrailingObjectsIS3_EEPT_v(ptr noundef nonnull align 8 dereferenceable(8) %8)
  %12 = call noundef ptr @_ZSt18uninitialized_copyIPKN5clang16TemplateArgumentEPS1_ET0_T_S6_S5_(ptr noundef %9, ptr noundef %10, ptr noundef %11)
  ret void
}

; Function Attrs: mustprogress nounwind uwtable
define linkonce_odr hidden noundef i64 @_ZNK4llvm8ArrayRefIN5clang16TemplateArgumentEE4sizeEv(ptr noundef nonnull align 8 dereferenceable(16) %0) #0 comdat align 2 {
  %2 = alloca ptr, align 8
  store ptr %0, ptr %2, align 8
  %3 = load ptr, ptr %2, align 8
  %4 = getelementptr inbounds nuw %"class.llvm::ArrayRef.418", ptr %3, i32 0, i32 1
  %5 = load i64, ptr %4, align 8
  ret i64 %5
}

; Function Attrs: mustprogress nounwind uwtable
define dso_local void @_ZN5clang33ImplicitConceptSpecializationDeclC2EPNS_11DeclContextENS_14SourceLocationEN4llvm8ArrayRefINS_16TemplateArgumentEEE(ptr noundef nonnull align 8 dereferenceable(40) %0, ptr noundef %1, i32 %2, ptr %3, i64 %4) unnamed_addr #0 align 2 {
  %6 = alloca %"class.clang::SourceLocation", align 4
  %7 = alloca %"class.llvm::ArrayRef.418", align 8
  %8 = alloca ptr, align 8
  %9 = alloca ptr, align 8
  %10 = alloca %"class.clang::SourceLocation", align 4
  %11 = alloca %"class.llvm::ArrayRef.418", align 8
  %12 = getelementptr inbounds nuw %"class.clang::SourceLocation", ptr %6, i32 0, i32 0
  store i32 %2, ptr %12, align 4
  %13 = getelementptr inbounds nuw { ptr, i64 }, ptr %7, i32 0, i32 0
  store ptr %3, ptr %13, align 8
  %14 = getelementptr inbounds nuw { ptr, i64 }, ptr %7, i32 0, i32 1
  store i64 %4, ptr %14, align 8
  store ptr %0, ptr %8, align 8
  store ptr %1, ptr %9, align 8
  %15 = load ptr, ptr %8, align 8
  %16 = load ptr, ptr %9, align 8
  call void @llvm.memcpy.p0.p0.i64(ptr align 4 %10, ptr align 4 %6, i64 4, i1 false)
  %17 = getelementptr inbounds nuw %"class.clang::SourceLocation", ptr %10, i32 0, i32 0
  %18 = load i32, ptr %17, align 4
  call void @_ZN5clang4DeclC2ENS0_4KindEPNS_11DeclContextENS_14SourceLocationE(ptr noundef nonnull align 8 dereferenceable(33) %15, i32 noundef 80, ptr noundef %16, i32 %18)
  store ptr getelementptr inbounds inrange(-16, 80) ({ [12 x ptr] }, ptr @_ZTVN5clang33ImplicitConceptSpecializationDeclE, i32 0, i32 0, i32 2), ptr %15, align 8
  %19 = getelementptr inbounds nuw %"class.clang::ImplicitConceptSpecializationDecl", ptr %15, i32 0, i32 1
  %20 = call noundef i64 @_ZNK4llvm8ArrayRefIN5clang16TemplateArgumentEE4sizeEv(ptr noundef nonnull align 8 dereferenceable(16) %7)
  %21 = trunc i64 %20 to i32
  store i32 %21, ptr %19, align 4
  call void @llvm.memcpy.p0.p0.i64(ptr align 8 %11, ptr align 8 %7, i64 16, i1 false)
  %22 = getelementptr inbounds nuw { ptr, i64 }, ptr %11, i32 0, i32 0
  %23 = load ptr, ptr %22, align 8
  %24 = getelementptr inbounds nuw { ptr, i64 }, ptr %11, i32 0, i32 1
  %25 = load i64, ptr %24, align 8
  call void @_ZN5clang33ImplicitConceptSpecializationDecl20setTemplateArgumentsEN4llvm8ArrayRefINS_16TemplateArgumentEEE(ptr noundef nonnull align 8 dereferenceable(40) %15, ptr %23, i64 %25)
  ret void
}