; Function Attrs: mustprogress nounwind uwtable
define dso_local void @_ZN5clang33ImplicitConceptSpecializationDeclC2EPNS_11DeclContextENS_14SourceLocationEN4llvm8ArrayRefINS_16TemplateArgumentEEE(ptr noundef nonnull align 8 dereferenceable(40) %0, ptr noundef %1, i32 %2, ptr readonly %3, i64 %4) unnamed_addr #0 align 2 {
  tail call void @_ZN5clang4DeclC2ENS0_4KindEPNS_11DeclContextENS_14SourceLocationE(ptr noundef nonnull align 8 dereferenceable(33) %0, i32 noundef 80, ptr noundef %1, i32 %2)
  store ptr getelementptr inbounds nuw inrange(-16, 80) (i8, ptr @_ZTVN5clang33ImplicitConceptSpecializationDeclE, i64 16), ptr %0, align 8
  %6 = getelementptr inbounds nuw i8, ptr %0, i64 36
  %7 = trunc i64 %4 to i32
  store i32 %7, ptr %6, align 4
  %8 = getelementptr inbounds %"class.clang::TemplateArgument", ptr %3, i64 %4
  %.not9.i.i.i.i = icmp eq i64 %4, 0
  br i1 %.not9.i.i.i.i, label %_ZN5clang33ImplicitConceptSpecializationDecl20setTemplateArgumentsEN4llvm8ArrayRefINS_16TemplateArgumentEEE.exit, label %.lr.ph.i.i.i.preheader.i

.lr.ph.i.i.i.preheader.i:                         ; preds = %5
  %9 = getelementptr inbounds nuw i8, ptr %0, i64 40
  br label %.lr.ph.i.i.i.i

.lr.ph.i.i.i.i:                                   ; preds = %.lr.ph.i.i.i.i, %.lr.ph.i.i.i.preheader.i
  %.011.i.i.i.i = phi ptr [ %11, %.lr.ph.i.i.i.i ], [ %9, %.lr.ph.i.i.i.preheader.i ]
  %.0810.i.i.i.i = phi ptr [ %10, %.lr.ph.i.i.i.i ], [ %3, %.lr.ph.i.i.i.preheader.i ]
  tail call void @llvm.memcpy.p0.p0.i64(ptr noundef nonnull align 8 dereferenceable(24) %.011.i.i.i.i, ptr noundef nonnull align 8 dereferenceable(24) %.0810.i.i.i.i, i64 24, i1 false)
  %10 = getelementptr inbounds nuw i8, ptr %.0810.i.i.i.i, i64 24
  %11 = getelementptr inbounds nuw i8, ptr %.011.i.i.i.i, i64 24
  %.not.i.i.i.i = icmp eq ptr %10, %8
  br i1 %.not.i.i.i.i, label %_ZN5clang33ImplicitConceptSpecializationDecl20setTemplateArgumentsEN4llvm8ArrayRefINS_16TemplateArgumentEEE.exit, label %.lr.ph.i.i.i.i, !llvm.loop !12

_ZN5clang33ImplicitConceptSpecializationDecl20setTemplateArgumentsEN4llvm8ArrayRefINS_16TemplateArgumentEEE.exit: ; preds = %.lr.ph.i.i.i.i, %5
  ret void
}